; Function Attrs: mustprogress uwtable
define void @_ZN17DisplayFilterEdit14dragEnterEventEP15QDragEnterEvent(ptr noundef nonnull readnone align 8 dereferenceable(352) %0, ptr noundef %1) unnamed_addr #2 align 2 {
  %.not = icmp eq ptr %1, null
  br i1 %.not, label %22, label %3

3:                                                ; preds = %2
  %4 = getelementptr inbounds i8, ptr %1, i64 56
  %5 = load ptr, ptr %4, align 8
  %.not10 = icmp eq ptr %5, null
  br i1 %.not10, label %22, label %6

6:                                                ; preds = %3
  %7 = tail call noundef ptr @_ZNK11QMetaObject4castEPK7QObject(ptr noundef nonnull align 8 dereferenceable(56) @_ZN20ToolbarEntryMimeData16staticMetaObjectE, ptr noundef nonnull %5)
  %.not11 = icmp eq ptr %7, null
  br i1 %.not11, label %8, label %14

8:                                                ; preds = %6
  %9 = load ptr, ptr %4, align 8
  %10 = load ptr, ptr %9, align 8
  %11 = getelementptr inbounds i8, ptr %10, i64 96
  %12 = load ptr, ptr %11, align 8
  %13 = tail call noundef zeroext i1 %12(ptr noundef nonnull align 8 dereferenceable(16) %9, ptr noundef nonnull align 8 dereferenceable(24) @_ZN17WiresharkMimeData21DisplayFilterMimeTypeE)
  br i1 %13, label %14, label %.sink.split

14:                                               ; preds = %8, %6
  %15 = tail call noundef ptr @_ZNK10QDropEvent6sourceEv(ptr noundef nonnull align 8 dereferenceable(64) %1)
  %.not12 = icmp eq ptr %15, %0
  br i1 %.not12, label %17, label %16

16:                                               ; preds = %14
  tail call void @_ZN10QDropEvent13setDropActionEN2Qt10DropActionE(ptr noundef nonnull align 8 dereferenceable(64) %1, i32 noundef 1)
  br label %.sink.split

17:                                               ; preds = %14
  %18 = getelementptr inbounds i8, ptr %1, i64 48
  %19 = load i32, ptr %18, align 8
  %20 = getelementptr inbounds i8, ptr %1, i64 44
  store i32 %19, ptr %20, align 4
  br label %.sink.split

.sink.split:                                      ; preds = %8, %17, %16
  %.sink = phi i8 [ 1, %16 ], [ 1, %17 ], [ 0, %8 ]
  %21 = getelementptr inbounds i8, ptr %1, i64 12
  store i8 %.sink, ptr %21, align 4
  br label %22

22:                                               ; preds = %.sink.split, %2, %3
  ret void
}